; ModuleID = '23/862.c'
source_filename = "23/862.c"
target datalayout = "e-m:e-p270:32:32-p271:32:32-p272:64:64-i64:64-f80:128-n8:16:32:64-S128"
target triple = "x86_64-pc-linux-gnu"

@.str = private unnamed_addr constant [3 x i8] c"%c\00", align 1
@.str.1 = private unnamed_addr constant [2 x i8] c" \00", align 1

; Function Attrs: noinline nounwind uwtable
define dso_local void @main() #0 {
  %1 = alloca [100 x i8], align 16
  %2 = alloca i8*, align 8
  %3 = alloca i32, align 4
  %4 = alloca i32, align 4
  %5 = alloca i32, align 4
  %6 = getelementptr inbounds [100 x i8], [100 x i8]* %1, i64 0, i64 0
  %7 = call i32 (i8*, ...) bitcast (i32 (...)* @gets to i32 (i8*, ...)*)(i8* %6)
  %8 = getelementptr inbounds [100 x i8], [100 x i8]* %1, i64 0, i64 0
  %9 = call i64 @strlen(i8* %8) #3
  %10 = trunc i64 %9 to i32
  store i32 %10, i32* %5, align 4
  %11 = load i32, i32* %5, align 4
  %12 = sub nsw i32 %11, 1
  store i32 %12, i32* %3, align 4
  br label %13

13:                                               ; preds = %25, %0
  %14 = load i32, i32* %3, align 4
  %15 = icmp sge i32 %14, 0
  br i1 %15, label %16, label %28

16:                                               ; preds = %13
  %17 = load i32, i32* %3, align 4
  %18 = sext i32 %17 to i64
  %19 = getelementptr inbounds [100 x i8], [100 x i8]* %1, i64 0, i64 %18
  %20 = load i8, i8* %19, align 1
  %21 = load i32, i32* %3, align 4
  %22 = add nsw i32 %21, 1
  %23 = sext i32 %22 to i64
  %24 = getelementptr inbounds [100 x i8], [100 x i8]* %1, i64 0, i64 %23
  store i8 %20, i8* %24, align 1
  br label %25

25:                                               ; preds = %16
  %26 = load i32, i32* %3, align 4
  %27 = add nsw i32 %26, -1
  store i32 %27, i32* %3, align 4
  br label %13

28:                                               ; preds = %13
  %29 = load i32, i32* %5, align 4
  %30 = add nsw i32 %29, 1
  %31 = sext i32 %30 to i64
  %32 = getelementptr inbounds [100 x i8], [100 x i8]* %1, i64 0, i64 %31
  store i8 32, i8* %32, align 1
  %33 = getelementptr inbounds [100 x i8], [100 x i8]* %1, i64 0, i64 0
  store i8 32, i8* %33, align 16
  %34 = getelementptr inbounds [100 x i8], [100 x i8]* %1, i64 0, i64 0
  store i8* %34, i8** %2, align 8
  %35 = load i32, i32* %5, align 4
  store i32 %35, i32* %3, align 4
  br label %36

36:                                               ; preds = %76, %28
  %37 = load i32, i32* %3, align 4
  %38 = icmp sge i32 %37, 0
  br i1 %38, label %39, label %79

39:                                               ; preds = %36
  %40 = load i8*, i8** %2, align 8
  %41 = load i32, i32* %3, align 4
  %42 = sext i32 %41 to i64
  %43 = getelementptr inbounds i8, i8* %40, i64 %42
  %44 = load i8, i8* %43, align 1
  %45 = sext i8 %44 to i32
  %46 = icmp eq i32 %45, 32
  br i1 %46, label %47, label %75

47:                                               ; preds = %39
  %48 = load i32, i32* %3, align 4
  %49 = add nsw i32 %48, 1
  store i32 %49, i32* %4, align 4
  br label %50

50:                                               ; preds = %66, %47
  %51 = load i8*, i8** %2, align 8
  %52 = load i32, i32* %4, align 4
  %53 = sext i32 %52 to i64
  %54 = getelementptr inbounds i8, i8* %51, i64 %53
  %55 = load i8, i8* %54, align 1
  %56 = sext i8 %55 to i32
  %57 = icmp ne i32 %56, 32
  br i1 %57, label %58, label %69

58:                                               ; preds = %50
  %59 = load i8*, i8** %2, align 8
  %60 = load i32, i32* %4, align 4
  %61 = sext i32 %60 to i64
  %62 = getelementptr inbounds i8, i8* %59, i64 %61
  %63 = load i8, i8* %62, align 1
  %64 = sext i8 %63 to i32
  %65 = call i32 (i8*, ...) @printf(i8* getelementptr inbounds ([3 x i8], [3 x i8]* @.str, i64 0, i64 0), i32 %64)
  br label %66

66:                                               ; preds = %58
  %67 = load i32, i32* %4, align 4
  %68 = add nsw i32 %67, 1
  store i32 %68, i32* %4, align 4
  br label %50

69:                                               ; preds = %50
  %70 = load i32, i32* %3, align 4
  %71 = icmp ne i32 %70, 0
  br i1 %71, label %72, label %74

72:                                               ; preds = %69
  %73 = call i32 (i8*, ...) @printf(i8* getelementptr inbounds ([2 x i8], [2 x i8]* @.str.1, i64 0, i64 0))
  br label %74

74:                                               ; preds = %72, %69
  br label %75

75:                                               ; preds = %74, %39
  br label %76

76:                                               ; preds = %75
  %77 = load i32, i32* %3, align 4
  %78 = add nsw i32 %77, -1
  store i32 %78, i32* %3, align 4
  br label %36

79:                                               ; preds = %36
  ret void
}

declare dso_local i32 @gets(...) #1

; Function Attrs: nounwind readonly
declare dso_local i64 @strlen(i8*) #2

declare dso_local i32 @printf(i8*, ...) #1


!llvm.module.flags = !{!0}
!llvm.ident = !{!1}

!0 = !{i32 1, !"wchar_size", i32 4}
!1 = !{!"clang version 10.0.0-4ubuntu1 "}
